; Function Attrs: inlinehint mustprogress uwtable
define internal void @"_ZN4pbrt3$_88__invokeERNS_16StatsAccumulatorE"(ptr noundef nonnull align 8 dereferenceable(8) %0) #11 align 2 {
  %2 = tail call align 8 ptr @llvm.threadlocal.address.p0(ptr align 8 @_ZN4pbrtL15totalPrimitivesE)
  %3 = load i64, ptr %2, align 8, !tbaa !49
  %4 = tail call align 8 ptr @llvm.threadlocal.address.p0(ptr align 8 @_ZN4pbrtL14totalLeafNodesE)
  %5 = load i64, ptr %4, align 8, !tbaa !49
  tail call void @_ZN4pbrt16StatsAccumulator11ReportRatioEPKcll(ptr noundef nonnull align 8 dereferenceable(8) %0, ptr noundef nonnull @.str.64, i64 noundef %3, i64 noundef %5)
  store i64 0, ptr %2, align 8, !tbaa !49
  store i64 0, ptr %4, align 8, !tbaa !49
  ret void
}